target datalayout = "e-m:e-p270:32:32-p271:32:32-p272:64:64-i64:64-i128:128-f80:128-n8:16:32:64-S128"
target triple = "x86_64-pc-linux-gnu"

%struct.VariableStatData = type { ptr, ptr, ptr, ptr, i32, i32, i32, i8, i8 }
%struct.FunctionCallInfoBaseData = type { ptr, ptr, ptr, i32, i8, i16, [0 x %struct.NullableDatum] }
%struct.NullableDatum = type { i64, i8 }
%struct.AttStatsSlot = type { i32, i32, i32, ptr, i32, ptr, i32, ptr, ptr }
%struct.FmgrInfo = type { ptr, i32, i16, i8, i8, i8, ptr, ptr, ptr }
%union.anon.0 = type { %struct.FunctionCallInfoBaseData, [32 x i8] }

@.str.1 = private unnamed_addr constant [11 x i8] c"selfuncs.c\00", align 1
@.str.7 = private unnamed_addr constant [60 x i8] c"not using statistics because function \22%s\22 is not leakproof\00", align 1
@__func__.statistic_proc_security_check = private unnamed_addr constant [30 x i8] c"statistic_proc_security_check\00", align 1

; Function Attrs: inlinehint nounwind uwtable
define internal zeroext i1 @DatumGetBool(i64 noundef %0) #1 {
  %2 = alloca i64, align 8
  store i64 %0, ptr %2, align 8
  %3 = load i64, ptr %2, align 8
  %4 = icmp ne i64 %3, 0
  ret i1 %4
}

; Function Attrs: nounwind uwtable
define dso_local zeroext i1 @statistic_proc_security_check(ptr noundef %0, i32 noundef %1) #0 {
  %3 = alloca i1, align 1
  %4 = alloca ptr, align 8
  %5 = alloca i32, align 4
  store ptr %0, ptr %4, align 8
  store i32 %1, ptr %5, align 4
  %6 = load ptr, ptr %4, align 8
  %7 = getelementptr inbounds nuw %struct.VariableStatData, ptr %6, i32 0, i32 8
  %8 = load i8, ptr %7, align 1, !range !4, !noundef !5
  %9 = trunc i8 %8 to i1
  br i1 %9, label %10, label %11

10:                                               ; preds = %2
  store i1 true, ptr %3, align 1
  br label %31

11:                                               ; preds = %2
  %12 = load i32, ptr %5, align 4
  %13 = icmp ne i32 %12, 0
  br i1 %13, label %15, label %14

14:                                               ; preds = %11
  store i1 false, ptr %3, align 1
  br label %31

15:                                               ; preds = %11
  %16 = load i32, ptr %5, align 4
  %17 = call zeroext i1 @get_func_leakproof(i32 noundef %16)
  br i1 %17, label %18, label %19

18:                                               ; preds = %15
  store i1 true, ptr %3, align 1
  br label %31

19:                                               ; preds = %15
  br label %20

20:                                               ; preds = %19
  br i1 false, label %21, label %23

21:                                               ; preds = %20
  %22 = call zeroext i1 @errstart_cold(i32 noundef 13, ptr noundef null) #11
  br i1 %22, label %25, label %29

23:                                               ; preds = %20
  %24 = call zeroext i1 @errstart(i32 noundef 13, ptr noundef null)
  br i1 %24, label %25, label %29

25:                                               ; preds = %23, %21
  %26 = load i32, ptr %5, align 4
  %27 = call ptr @get_func_name(i32 noundef %26)
  %28 = call i32 (ptr, ...) @errmsg_internal(ptr noundef @.str.7, ptr noundef %27)
  call void @errfinish(ptr noundef @.str.1, i32 noundef 5782, ptr noundef @__func__.statistic_proc_security_check)
  br label %29

29:                                               ; preds = %25, %23, %21
  br label %30

30:                                               ; preds = %29
  store i1 false, ptr %3, align 1
  br label %31

31:                                               ; preds = %30, %18, %14, %10
  %32 = load i1, ptr %3, align 1
  ret i1 %32
}

; Function Attrs: nounwind uwtable
define dso_local double @mcv_selectivity(ptr noundef %0, ptr noundef %1, i32 noundef %2, i64 noundef %3, i1 noundef zeroext %4, ptr noundef %5) #0 {
  %7 = alloca ptr, align 8
  %8 = alloca ptr, align 8
  %9 = alloca i32, align 4
  %10 = alloca i64, align 8
  %11 = alloca i8, align 1
  %12 = alloca ptr, align 8
  %13 = alloca double, align 8
  %14 = alloca double, align 8
  %15 = alloca %struct.AttStatsSlot, align 8
  %16 = alloca i32, align 4
  %17 = alloca %union.anon.0, align 8
  %18 = alloca ptr, align 8
  %19 = alloca i64, align 8
  store ptr %0, ptr %7, align 8
  store ptr %1, ptr %8, align 8
  store i32 %2, ptr %9, align 4
  store i64 %3, ptr %10, align 8
  %20 = zext i1 %4 to i8
  store i8 %20, ptr %11, align 1
  store ptr %5, ptr %12, align 8
  call void @llvm.lifetime.start.p0(i64 8, ptr %13) #10
  call void @llvm.lifetime.start.p0(i64 8, ptr %14) #10
  call void @llvm.lifetime.start.p0(i64 64, ptr %15) #10
  call void @llvm.lifetime.start.p0(i64 4, ptr %16) #10
  store double 0.000000e+00, ptr %13, align 8
  store double 0.000000e+00, ptr %14, align 8
  %21 = load ptr, ptr %7, align 8
  %22 = getelementptr inbounds nuw %struct.VariableStatData, ptr %21, i32 0, i32 2
  %23 = load ptr, ptr %22, align 8
  %24 = icmp ne ptr %23, null
  br i1 %24, label %25, label %148

25:                                               ; preds = %6
  %26 = load ptr, ptr %7, align 8
  %27 = load ptr, ptr %8, align 8
  %28 = getelementptr inbounds nuw %struct.FmgrInfo, ptr %27, i32 0, i32 1
  %29 = load i32, ptr %28, align 8
  %30 = call zeroext i1 @statistic_proc_security_check(ptr noundef %26, i32 noundef %29)
  br i1 %30, label %31, label %148

31:                                               ; preds = %25
  %32 = load ptr, ptr %7, align 8
  %33 = getelementptr inbounds nuw %struct.VariableStatData, ptr %32, i32 0, i32 2
  %34 = load ptr, ptr %33, align 8
  %35 = call zeroext i1 @get_attstatsslot(ptr noundef %15, ptr noundef %34, i32 noundef 1, i32 noundef 0, i32 noundef 3)
  br i1 %35, label %36, label %148

36:                                               ; preds = %31
  call void @llvm.lifetime.start.p0(i64 64, ptr %17) #10
  call void @llvm.lifetime.start.p0(i64 8, ptr %18) #10
  store ptr %17, ptr %18, align 8
  br label %37

37:                                               ; preds = %36
  %38 = load ptr, ptr %8, align 8
  %39 = load ptr, ptr %18, align 8
  %40 = getelementptr inbounds nuw %struct.FunctionCallInfoBaseData, ptr %39, i32 0, i32 0
  store ptr %38, ptr %40, align 8
  %41 = load ptr, ptr %18, align 8
  %42 = getelementptr inbounds nuw %struct.FunctionCallInfoBaseData, ptr %41, i32 0, i32 1
  store ptr null, ptr %42, align 8
  %43 = load ptr, ptr %18, align 8
  %44 = getelementptr inbounds nuw %struct.FunctionCallInfoBaseData, ptr %43, i32 0, i32 2
  store ptr null, ptr %44, align 8
  %45 = load i32, ptr %9, align 4
  %46 = load ptr, ptr %18, align 8
  %47 = getelementptr inbounds nuw %struct.FunctionCallInfoBaseData, ptr %46, i32 0, i32 3
  store i32 %45, ptr %47, align 8
  %48 = load ptr, ptr %18, align 8
  %49 = getelementptr inbounds nuw %struct.FunctionCallInfoBaseData, ptr %48, i32 0, i32 4
  store i8 0, ptr %49, align 4
  %50 = load ptr, ptr %18, align 8
  %51 = getelementptr inbounds nuw %struct.FunctionCallInfoBaseData, ptr %50, i32 0, i32 5
  store i16 2, ptr %51, align 2
  br label %52

52:                                               ; preds = %37
  br label %53

53:                                               ; preds = %52
  %54 = load ptr, ptr %18, align 8
  %55 = getelementptr inbounds nuw %struct.FunctionCallInfoBaseData, ptr %54, i32 0, i32 6
  %56 = getelementptr inbounds [0 x %struct.NullableDatum], ptr %55, i64 0, i64 0
  %57 = getelementptr inbounds nuw %struct.NullableDatum, ptr %56, i32 0, i32 1
  store i8 0, ptr %57, align 8
  %58 = load ptr, ptr %18, align 8
  %59 = getelementptr inbounds nuw %struct.FunctionCallInfoBaseData, ptr %58, i32 0, i32 6
  %60 = getelementptr inbounds [0 x %struct.NullableDatum], ptr %59, i64 0, i64 1
  %61 = getelementptr inbounds nuw %struct.NullableDatum, ptr %60, i32 0, i32 1
  store i8 0, ptr %61, align 8
  %62 = load i8, ptr %11, align 1, !range !4, !noundef !5
  %63 = trunc i8 %62 to i1
  br i1 %63, label %64, label %70

64:                                               ; preds = %53
  %65 = load i64, ptr %10, align 8
  %66 = load ptr, ptr %18, align 8
  %67 = getelementptr inbounds nuw %struct.FunctionCallInfoBaseData, ptr %66, i32 0, i32 6
  %68 = getelementptr inbounds [0 x %struct.NullableDatum], ptr %67, i64 0, i64 1
  %69 = getelementptr inbounds nuw %struct.NullableDatum, ptr %68, i32 0, i32 0
  store i64 %65, ptr %69, align 8
  br label %76

70:                                               ; preds = %53
  %71 = load i64, ptr %10, align 8
  %72 = load ptr, ptr %18, align 8
  %73 = getelementptr inbounds nuw %struct.FunctionCallInfoBaseData, ptr %72, i32 0, i32 6
  %74 = getelementptr inbounds [0 x %struct.NullableDatum], ptr %73, i64 0, i64 0
  %75 = getelementptr inbounds nuw %struct.NullableDatum, ptr %74, i32 0, i32 0
  store i64 %71, ptr %75, align 8
  br label %76

76:                                               ; preds = %70, %64
  store i32 0, ptr %16, align 4
  br label %77

77:                                               ; preds = %144, %76
  %78 = load i32, ptr %16, align 4
  %79 = getelementptr inbounds nuw %struct.AttStatsSlot, ptr %15, i32 0, i32 4
  %80 = load i32, ptr %79, align 8
  %81 = icmp slt i32 %78, %80
  br i1 %81, label %82, label %147

82:                                               ; preds = %77
  call void @llvm.lifetime.start.p0(i64 8, ptr %19) #10
  %83 = load i8, ptr %11, align 1, !range !4, !noundef !5
  %84 = trunc i8 %83 to i1
  br i1 %84, label %85, label %96

85:                                               ; preds = %82
  %86 = getelementptr inbounds nuw %struct.AttStatsSlot, ptr %15, i32 0, i32 3
  %87 = load ptr, ptr %86, align 8
  %88 = load i32, ptr %16, align 4
  %89 = sext i32 %88 to i64
  %90 = getelementptr inbounds i64, ptr %87, i64 %89
  %91 = load i64, ptr %90, align 8
  %92 = load ptr, ptr %18, align 8
  %93 = getelementptr inbounds nuw %struct.FunctionCallInfoBaseData, ptr %92, i32 0, i32 6
  %94 = getelementptr inbounds [0 x %struct.NullableDatum], ptr %93, i64 0, i64 0
  %95 = getelementptr inbounds nuw %struct.NullableDatum, ptr %94, i32 0, i32 0
  store i64 %91, ptr %95, align 8
  br label %107

96:                                               ; preds = %82
  %97 = getelementptr inbounds nuw %struct.AttStatsSlot, ptr %15, i32 0, i32 3
  %98 = load ptr, ptr %97, align 8
  %99 = load i32, ptr %16, align 4
  %100 = sext i32 %99 to i64
  %101 = getelementptr inbounds i64, ptr %98, i64 %100
  %102 = load i64, ptr %101, align 8
  %103 = load ptr, ptr %18, align 8
  %104 = getelementptr inbounds nuw %struct.FunctionCallInfoBaseData, ptr %103, i32 0, i32 6
  %105 = getelementptr inbounds [0 x %struct.NullableDatum], ptr %104, i64 0, i64 1
  %106 = getelementptr inbounds nuw %struct.NullableDatum, ptr %105, i32 0, i32 0
  store i64 %102, ptr %106, align 8
  br label %107

107:                                              ; preds = %96, %85
  %108 = load ptr, ptr %18, align 8
  %109 = getelementptr inbounds nuw %struct.FunctionCallInfoBaseData, ptr %108, i32 0, i32 4
  store i8 0, ptr %109, align 4
  %110 = load ptr, ptr %18, align 8
  %111 = getelementptr inbounds nuw %struct.FunctionCallInfoBaseData, ptr %110, i32 0, i32 0
  %112 = load ptr, ptr %111, align 8
  %113 = getelementptr inbounds nuw %struct.FmgrInfo, ptr %112, i32 0, i32 0
  %114 = load ptr, ptr %113, align 8
  %115 = load ptr, ptr %18, align 8
  %116 = call i64 %114(ptr noundef %115)
  store i64 %116, ptr %19, align 8
  %117 = load ptr, ptr %18, align 8
  %118 = getelementptr inbounds nuw %struct.FunctionCallInfoBaseData, ptr %117, i32 0, i32 4
  %119 = load i8, ptr %118, align 4, !range !4, !noundef !5
  %120 = trunc i8 %119 to i1
  br i1 %120, label %134, label %121

121:                                              ; preds = %107
  %122 = load i64, ptr %19, align 8
  %123 = call zeroext i1 @DatumGetBool(i64 noundef %122)
  br i1 %123, label %124, label %134

124:                                              ; preds = %121
  %125 = getelementptr inbounds nuw %struct.AttStatsSlot, ptr %15, i32 0, i32 5
  %126 = load ptr, ptr %125, align 8
  %127 = load i32, ptr %16, align 4
  %128 = sext i32 %127 to i64
  %129 = getelementptr inbounds float, ptr %126, i64 %128
  %130 = load float, ptr %129, align 4
  %131 = fpext float %130 to double
  %132 = load double, ptr %13, align 8
  %133 = fadd double %132, %131
  store double %133, ptr %13, align 8
  br label %134

134:                                              ; preds = %124, %121, %107
  %135 = getelementptr inbounds nuw %struct.AttStatsSlot, ptr %15, i32 0, i32 5
  %136 = load ptr, ptr %135, align 8
  %137 = load i32, ptr %16, align 4
  %138 = sext i32 %137 to i64
  %139 = getelementptr inbounds float, ptr %136, i64 %138
  %140 = load float, ptr %139, align 4
  %141 = fpext float %140 to double
  %142 = load double, ptr %14, align 8
  %143 = fadd double %142, %141
  store double %143, ptr %14, align 8
  call void @llvm.lifetime.end.p0(i64 8, ptr %19) #10
  br label %144

144:                                              ; preds = %134
  %145 = load i32, ptr %16, align 4
  %146 = add i32 %145, 1
  store i32 %146, ptr %16, align 4
  br label %77, !llvm.loop !9

147:                                              ; preds = %77
  call void @free_attstatsslot(ptr noundef %15)
  call void @llvm.lifetime.end.p0(i64 8, ptr %18) #10
  call void @llvm.lifetime.end.p0(i64 64, ptr %17) #10
  br label %148

148:                                              ; preds = %147, %31, %25, %6
  %149 = load double, ptr %14, align 8
  %150 = load ptr, ptr %12, align 8
  store double %149, ptr %150, align 8
  %151 = load double, ptr %13, align 8
  call void @llvm.lifetime.end.p0(i64 4, ptr %16) #10
  call void @llvm.lifetime.end.p0(i64 64, ptr %15) #10
  call void @llvm.lifetime.end.p0(i64 8, ptr %14) #10
  call void @llvm.lifetime.end.p0(i64 8, ptr %13) #10
  ret double %151
}