; Function Attrs: nounwind uwtable
define dso_local double @mcv_selectivity(ptr noundef readonly captures(none) %0, ptr noundef %1, i32 noundef %2, i64 noundef %3, i1 noundef zeroext %4, ptr noundef writeonly captures(none) %5) local_unnamed_addr #0 {
  %7 = alloca %struct.AttStatsSlot, align 8
  %8 = alloca %union.anon.0, align 8
  call void @llvm.lifetime.start.p0(i64 64, ptr nonnull %7) #12
  %9 = getelementptr inbounds nuw i8, ptr %0, i64 16
  %10 = load ptr, ptr %9, align 8
  %.not = icmp eq ptr %10, null
  br i1 %.not, label %statistic_proc_security_check.exit.thread, label %11

11:                                               ; preds = %6
  %12 = getelementptr inbounds nuw i8, ptr %1, i64 8
  %13 = load i32, ptr %12, align 8
  %14 = getelementptr inbounds nuw i8, ptr %0, i64 45
  %15 = load i8, ptr %14, align 1, !range !4, !noundef !5
  %16 = trunc nuw i8 %15 to i1
  br i1 %16, label %statistic_proc_security_check.exit, label %17

17:                                               ; preds = %11
  %.not.i = icmp eq i32 %13, 0
  br i1 %.not.i, label %statistic_proc_security_check.exit.thread, label %18

18:                                               ; preds = %17
  %19 = tail call zeroext i1 @get_func_leakproof(i32 noundef %13) #12
  br i1 %19, label %.statistic_proc_security_check.exit_crit_edge, label %20

.statistic_proc_security_check.exit_crit_edge:    ; preds = %18
  %.pre = load ptr, ptr %9, align 8
  br label %statistic_proc_security_check.exit

20:                                               ; preds = %18
  %21 = tail call zeroext i1 @errstart(i32 noundef 13, ptr noundef null) #12
  br i1 %21, label %22, label %statistic_proc_security_check.exit.thread

22:                                               ; preds = %20
  %23 = tail call ptr @get_func_name(i32 noundef %13) #12
  %24 = tail call i32 (ptr, ...) @errmsg_internal(ptr noundef nonnull @.str.7, ptr noundef %23) #12
  tail call void @errfinish(ptr noundef nonnull @.str.1, i32 noundef 5782, ptr noundef nonnull @__func__.statistic_proc_security_check) #12
  br label %statistic_proc_security_check.exit.thread

statistic_proc_security_check.exit:               ; preds = %.statistic_proc_security_check.exit_crit_edge, %11
  %25 = phi ptr [ %.pre, %.statistic_proc_security_check.exit_crit_edge ], [ %10, %11 ]
  %26 = call zeroext i1 @get_attstatsslot(ptr noundef nonnull %7, ptr noundef %25, i32 noundef 1, i32 noundef 0, i32 noundef 3) #12
  br i1 %26, label %27, label %statistic_proc_security_check.exit.thread

27:                                               ; preds = %statistic_proc_security_check.exit
  call void @llvm.lifetime.start.p0(i64 64, ptr nonnull %8) #12
  store ptr %1, ptr %8, align 8
  %28 = getelementptr inbounds nuw i8, ptr %8, i64 8
  %29 = getelementptr inbounds nuw i8, ptr %8, i64 24
  call void @llvm.memset.p0.i64(ptr noundef nonnull align 8 dereferenceable(16) %28, i8 0, i64 16, i1 false)
  store i32 %2, ptr %29, align 8
  %30 = getelementptr inbounds nuw i8, ptr %8, i64 28
  store i8 0, ptr %30, align 4
  %31 = getelementptr inbounds nuw i8, ptr %8, i64 30
  store i16 2, ptr %31, align 2
  %32 = getelementptr inbounds nuw i8, ptr %8, i64 32
  %33 = getelementptr inbounds nuw i8, ptr %8, i64 40
  store i8 0, ptr %33, align 8
  %34 = getelementptr inbounds nuw i8, ptr %8, i64 48
  %35 = getelementptr inbounds nuw i8, ptr %8, i64 56
  store i8 0, ptr %35, align 8
  %36 = getelementptr inbounds nuw i8, ptr %7, i64 24
  br i1 %4, label %37, label %.thread

37:                                               ; preds = %27
  store i64 %3, ptr %34, align 8
  %38 = load i32, ptr %36, align 8
  %39 = icmp sgt i32 %38, 0
  br i1 %39, label %.lr.ph, label %._crit_edge

.thread:                                          ; preds = %27
  store i64 %3, ptr %32, align 8
  %40 = load i32, ptr %36, align 8
  %41 = icmp sgt i32 %40, 0
  br i1 %41, label %.lr.ph.thread, label %._crit_edge

.lr.ph.thread:                                    ; preds = %.thread
  %42 = getelementptr inbounds nuw i8, ptr %7, i64 16
  %43 = getelementptr inbounds nuw i8, ptr %7, i64 32
  br label %.lr.ph.split

.lr.ph:                                           ; preds = %37
  %44 = getelementptr inbounds nuw i8, ptr %7, i64 16
  %45 = getelementptr inbounds nuw i8, ptr %7, i64 32
  br label %.lr.ph.split.us

.lr.ph.split.us:                                  ; preds = %.lr.ph, %.lr.ph.split.us
  %indvars.iv51 = phi i64 [ %indvars.iv.next52, %.lr.ph.split.us ], [ 0, %.lr.ph ]
  %.145.us = phi double [ %.2.us, %.lr.ph.split.us ], [ 0.000000e+00, %.lr.ph ]
  %.13844.us = phi double [ %56, %.lr.ph.split.us ], [ 0.000000e+00, %.lr.ph ]
  %46 = load ptr, ptr %44, align 8
  %47 = getelementptr inbounds nuw i64, ptr %46, i64 %indvars.iv51
  %48 = load i64, ptr %47, align 8
  store i64 %48, ptr %32, align 8
  store i8 0, ptr %30, align 4
  %49 = load ptr, ptr %8, align 8
  %50 = load ptr, ptr %49, align 8
  %51 = call i64 %50(ptr noundef nonnull %8) #12
  %52 = load i8, ptr %30, align 4, !range !4, !noundef !5
  %53 = trunc nuw i8 %52 to i1
  %54 = icmp eq i64 %51, 0
  %or.cond.not.us = select i1 %53, i1 true, i1 %54
  %.pre56 = load ptr, ptr %45, align 8
  %.phi.trans.insert57 = getelementptr inbounds nuw float, ptr %.pre56, i64 %indvars.iv51
  %.pre58 = load float, ptr %.phi.trans.insert57, align 4
  %.pre59 = fpext float %.pre58 to double
  %55 = fadd double %.145.us, %.pre59
  %.2.us = select i1 %or.cond.not.us, double %.145.us, double %55
  %56 = fadd double %.13844.us, %.pre59
  %indvars.iv.next52 = add nuw nsw i64 %indvars.iv51, 1
  %57 = load i32, ptr %36, align 8
  %58 = sext i32 %57 to i64
  %59 = icmp slt i64 %indvars.iv.next52, %58
  br i1 %59, label %.lr.ph.split.us, label %._crit_edge, !llvm.loop !9

.lr.ph.split:                                     ; preds = %.lr.ph.thread, %.lr.ph.split
  %indvars.iv = phi i64 [ 0, %.lr.ph.thread ], [ %indvars.iv.next, %.lr.ph.split ]
  %.145 = phi double [ 0.000000e+00, %.lr.ph.thread ], [ %.2, %.lr.ph.split ]
  %.13844 = phi double [ 0.000000e+00, %.lr.ph.thread ], [ %70, %.lr.ph.split ]
  %60 = load ptr, ptr %42, align 8
  %61 = getelementptr inbounds nuw i64, ptr %60, i64 %indvars.iv
  %62 = load i64, ptr %61, align 8
  store i64 %62, ptr %34, align 8
  store i8 0, ptr %30, align 4
  %63 = load ptr, ptr %8, align 8
  %64 = load ptr, ptr %63, align 8
  %65 = call i64 %64(ptr noundef nonnull %8) #12
  %66 = load i8, ptr %30, align 4, !range !4, !noundef !5
  %67 = trunc nuw i8 %66 to i1
  %68 = icmp eq i64 %65, 0
  %or.cond.not = select i1 %67, i1 true, i1 %68
  %.pre54 = load ptr, ptr %43, align 8
  %.phi.trans.insert = getelementptr inbounds nuw float, ptr %.pre54, i64 %indvars.iv
  %.pre55 = load float, ptr %.phi.trans.insert, align 4
  %.pre60 = fpext float %.pre55 to double
  %69 = fadd double %.145, %.pre60
  %.2 = select i1 %or.cond.not, double %.145, double %69
  %70 = fadd double %.13844, %.pre60
  %indvars.iv.next = add nuw nsw i64 %indvars.iv, 1
  %71 = load i32, ptr %36, align 8
  %72 = sext i32 %71 to i64
  %73 = icmp slt i64 %indvars.iv.next, %72
  br i1 %73, label %.lr.ph.split, label %._crit_edge, !llvm.loop !9

._crit_edge:                                      ; preds = %.lr.ph.split, %.lr.ph.split.us, %.thread, %37
  %.138.lcssa = phi double [ 0.000000e+00, %37 ], [ 0.000000e+00, %.thread ], [ %56, %.lr.ph.split.us ], [ %70, %.lr.ph.split ]
  %.1.lcssa = phi double [ 0.000000e+00, %37 ], [ 0.000000e+00, %.thread ], [ %.2.us, %.lr.ph.split.us ], [ %.2, %.lr.ph.split ]
  call void @free_attstatsslot(ptr noundef nonnull %7) #12
  call void @llvm.lifetime.end.p0(i64 64, ptr nonnull %8) #12
  br label %statistic_proc_security_check.exit.thread

statistic_proc_security_check.exit.thread:        ; preds = %22, %20, %17, %._crit_edge, %statistic_proc_security_check.exit, %6
  %.037 = phi double [ %.138.lcssa, %._crit_edge ], [ 0.000000e+00, %statistic_proc_security_check.exit ], [ 0.000000e+00, %6 ], [ 0.000000e+00, %17 ], [ 0.000000e+00, %20 ], [ 0.000000e+00, %22 ]
  %.0 = phi double [ %.1.lcssa, %._crit_edge ], [ 0.000000e+00, %statistic_proc_security_check.exit ], [ 0.000000e+00, %6 ], [ 0.000000e+00, %17 ], [ 0.000000e+00, %20 ], [ 0.000000e+00, %22 ]
  store double %.037, ptr %5, align 8
  call void @llvm.lifetime.end.p0(i64 64, ptr nonnull %7) #12
  ret double %.0
}